target datalayout = "e-m:e-p270:32:32-p271:32:32-p272:64:64-i64:64-i128:128-f80:128-n8:16:32:64-S128"
target triple = "x86_64-pc-linux-gnu"

%"struct.Yosys::DriveChunkMarker" = type { i32, i32, i32 }

; Function Attrs: mustprogress nounwind uwtable
define noundef zeroext i1 @_ZN5Yosys16DriveChunkMarker10try_appendERKS0_(ptr noundef nonnull align 4 dereferenceable(12) %0, ptr noundef nonnull align 4 dereferenceable(12) %1) #7 align 2 {
  %3 = alloca i1, align 1
  %4 = alloca ptr, align 8
  %5 = alloca ptr, align 8
  store ptr %0, ptr %4, align 8, !tbaa !71
  store ptr %1, ptr %5, align 8, !tbaa !71
  %6 = load ptr, ptr %4, align 8
  %7 = load ptr, ptr %5, align 8, !tbaa !71
  %8 = getelementptr inbounds nuw %"struct.Yosys::DriveChunkMarker", ptr %7, i32 0, i32 0
  %9 = load i32, ptr %8, align 4, !tbaa !77
  %10 = getelementptr inbounds nuw %"struct.Yosys::DriveChunkMarker", ptr %6, i32 0, i32 0
  %11 = load i32, ptr %10, align 4, !tbaa !77
  %12 = icmp ne i32 %9, %11
  br i1 %12, label %23, label %13

13:                                               ; preds = %2
  %14 = load ptr, ptr %5, align 8, !tbaa !71
  %15 = getelementptr inbounds nuw %"struct.Yosys::DriveChunkMarker", ptr %14, i32 0, i32 1
  %16 = load i32, ptr %15, align 4, !tbaa !80
  %17 = getelementptr inbounds nuw %"struct.Yosys::DriveChunkMarker", ptr %6, i32 0, i32 1
  %18 = load i32, ptr %17, align 4, !tbaa !80
  %19 = getelementptr inbounds nuw %"struct.Yosys::DriveChunkMarker", ptr %6, i32 0, i32 2
  %20 = load i32, ptr %19, align 4, !tbaa !81
  %21 = add nsw i32 %18, %20
  %22 = icmp ne i32 %16, %21
  br i1 %22, label %23, label %24

23:                                               ; preds = %13, %2
  store i1 false, ptr %3, align 1
  br label %31

24:                                               ; preds = %13
  %25 = load ptr, ptr %5, align 8, !tbaa !71
  %26 = getelementptr inbounds nuw %"struct.Yosys::DriveChunkMarker", ptr %25, i32 0, i32 2
  %27 = load i32, ptr %26, align 4, !tbaa !81
  %28 = getelementptr inbounds nuw %"struct.Yosys::DriveChunkMarker", ptr %6, i32 0, i32 2
  %29 = load i32, ptr %28, align 4, !tbaa !81
  %30 = add nsw i32 %29, %27
  store i32 %30, ptr %28, align 4, !tbaa !81
  store i1 true, ptr %3, align 1
  br label %31

31:                                               ; preds = %24, %23
  %32 = load i1, ptr %3, align 1
  ret i1 %32
}