; Function Attrs: mustprogress nofree norecurse nosync nounwind willreturn memory(argmem: readwrite) uwtable
define noundef zeroext i1 @_ZN5Yosys16DriveChunkMarker10try_appendERKS0_(ptr noundef nonnull align 4 captures(none) dereferenceable(12) %0, ptr noundef nonnull readonly align 4 captures(none) dereferenceable(12) %1) local_unnamed_addr #9 align 2 {
  %3 = load i32, ptr %1, align 4, !tbaa !71
  %4 = load i32, ptr %0, align 4, !tbaa !71
  %.not = icmp eq i32 %3, %4
  br i1 %.not, label %5, label %17

5:                                                ; preds = %2
  %6 = getelementptr inbounds nuw i8, ptr %1, i64 4
  %7 = load i32, ptr %6, align 4, !tbaa !73
  %8 = getelementptr inbounds nuw i8, ptr %0, i64 4
  %9 = load i32, ptr %8, align 4, !tbaa !73
  %10 = getelementptr inbounds nuw i8, ptr %0, i64 8
  %11 = load i32, ptr %10, align 4, !tbaa !82
  %12 = add nsw i32 %11, %9
  %.not5 = icmp eq i32 %7, %12
  br i1 %.not5, label %13, label %17

13:                                               ; preds = %5
  %14 = getelementptr inbounds nuw i8, ptr %1, i64 8
  %15 = load i32, ptr %14, align 4, !tbaa !82
  %16 = add nsw i32 %15, %11
  store i32 %16, ptr %10, align 4, !tbaa !82
  br label %17

17:                                               ; preds = %2, %5, %13
  %.0 = phi i1 [ true, %13 ], [ false, %5 ], [ false, %2 ]
  ret i1 %.0
}